target datalayout = "e-m:e-p270:32:32-p271:32:32-p272:64:64-i64:64-i128:128-f80:128-n8:16:32:64-S128"
target triple = "x86_64-pc-linux-gnu"

%"struct.Luau::CodeGen::CompilationResult" = type { i32, %"class.std::vector.60" }
%"class.std::vector.60" = type { %"struct.std::_Vector_base.61" }
%"struct.std::_Vector_base.61" = type { %"struct.std::_Vector_base<Luau::CodeGen::ProtoCompilationFailure, std::allocator<Luau::CodeGen::ProtoCompilationFailure>>::_Vector_impl" }
%"struct.std::_Vector_base<Luau::CodeGen::ProtoCompilationFailure, std::allocator<Luau::CodeGen::ProtoCompilationFailure>>::_Vector_impl" = type { %"struct.std::_Vector_base<Luau::CodeGen::ProtoCompilationFailure, std::allocator<Luau::CodeGen::ProtoCompilationFailure>>::_Vector_impl_data" }
%"struct.std::_Vector_base<Luau::CodeGen::ProtoCompilationFailure, std::allocator<Luau::CodeGen::ProtoCompilationFailure>>::_Vector_impl_data" = type { ptr, ptr, ptr }
%"class.std::optional.38" = type { %"struct.std::_Optional_base.39" }
%"struct.std::_Optional_base.39" = type { %"struct.std::_Optional_payload.41" }
%"struct.std::_Optional_payload.41" = type { %"struct.std::_Optional_payload_base.42" }
%"struct.std::_Optional_payload_base.42" = type { %"union.std::_Optional_payload_base<std::array<unsigned char, 16>>::_Storage", i8 }
%"union.std::_Optional_payload_base<std::array<unsigned char, 16>>::_Storage" = type { %"struct.std::array" }
%"struct.std::array" = type { [16 x i8] }

; Function Attrs: mustprogress nounwind uwtable
define linkonce_odr dso_local void @_ZNSt22_Optional_payload_baseISt5arrayIhLm16EEE8_StorageIS1_Lb1EEC2Ev(ptr noundef nonnull align 1 dereferenceable(16) %0) unnamed_addr #1 comdat align 2 {
  %2 = alloca ptr, align 8
  store ptr %0, ptr %2, align 8, !tbaa !912
  ret void
}

; Function Attrs: mustprogress nounwind uwtable
define linkonce_odr dso_local void @_ZNSt22_Optional_payload_baseISt5arrayIhLm16EEEC2Ev(ptr noundef nonnull align 1 dereferenceable(17) %0) unnamed_addr #1 comdat align 2 {
  %2 = alloca ptr, align 8
  store ptr %0, ptr %2, align 8, !tbaa !352
  %3 = load ptr, ptr %2, align 8
  %4 = getelementptr inbounds nuw %"struct.std::_Optional_payload_base.42", ptr %3, i32 0, i32 0
  call void @_ZNSt22_Optional_payload_baseISt5arrayIhLm16EEE8_StorageIS1_Lb1EEC2Ev(ptr noundef nonnull align 1 dereferenceable(16) %4) #17
  %5 = getelementptr inbounds nuw %"struct.std::_Optional_payload_base.42", ptr %3, i32 0, i32 1
  store i8 0, ptr %5, align 1, !tbaa !350
  ret void
}

; Function Attrs: mustprogress nounwind uwtable
define linkonce_odr dso_local void @_ZNSt17_Optional_payloadISt5arrayIhLm16EELb1ELb1ELb1EEC2Ev(ptr noundef nonnull align 1 dereferenceable(17) %0) unnamed_addr #1 comdat align 2 {
  %2 = alloca ptr, align 8
  store ptr %0, ptr %2, align 8, !tbaa !910
  %3 = load ptr, ptr %2, align 8
  call void @_ZNSt22_Optional_payload_baseISt5arrayIhLm16EEEC2Ev(ptr noundef nonnull align 1 dereferenceable(17) %3) #17
  ret void
}

; Function Attrs: mustprogress nounwind uwtable
define linkonce_odr dso_local void @_ZNSt14_Optional_baseISt5arrayIhLm16EELb1ELb1EEC2Ev(ptr noundef nonnull align 1 dereferenceable(17) %0) unnamed_addr #1 comdat align 2 {
  %2 = alloca ptr, align 8
  store ptr %0, ptr %2, align 8, !tbaa !908
  %3 = load ptr, ptr %2, align 8
  %4 = getelementptr inbounds nuw %"struct.std::_Optional_base.39", ptr %3, i32 0, i32 0
  call void @_ZNSt17_Optional_payloadISt5arrayIhLm16EELb1ELb1ELb1EEC2Ev(ptr noundef nonnull align 1 dereferenceable(17) %4) #17
  ret void
}

; Function Attrs: mustprogress nounwind uwtable
define linkonce_odr dso_local void @_ZNSt8optionalISt5arrayIhLm16EEEC2Ev(ptr noundef nonnull align 1 dereferenceable(17) %0) unnamed_addr #1 comdat align 2 {
  %2 = alloca ptr, align 8
  store ptr %0, ptr %2, align 8, !tbaa !148
  %3 = load ptr, ptr %2, align 8
  call void @_ZNSt14_Optional_baseISt5arrayIhLm16EELb1ELb1EEC2Ev(ptr noundef nonnull align 1 dereferenceable(17) %3) #17
  ret void
}

; Function Attrs: mustprogress uwtable
define dso_local void @_ZN4Luau7CodeGen7compileEP9lua_StateiRKNS0_18CompilationOptionsEPNS0_16CompilationStatsE(ptr dead_on_unwind noalias writable sret(%"struct.Luau::CodeGen::CompilationResult") align 8 %0, ptr noundef %1, i32 noundef %2, ptr noundef nonnull align 8 dereferenceable(96) %3, ptr noundef %4) #2 {
  %6 = alloca ptr, align 8
  %7 = alloca ptr, align 8
  %8 = alloca i32, align 4
  %9 = alloca ptr, align 8
  %10 = alloca ptr, align 8
  %11 = alloca %"class.std::optional.38", align 1
  store ptr %0, ptr %6, align 8
  store ptr %1, ptr %7, align 8, !tbaa !214
  store i32 %2, ptr %8, align 4, !tbaa !11
  store ptr %3, ptr %9, align 8, !tbaa !237
  store ptr %4, ptr %10, align 8, !tbaa !239
  call void @llvm.lifetime.start.p0(i64 17, ptr %11) #17
  call void @_ZNSt8optionalISt5arrayIhLm16EEEC2Ev(ptr noundef nonnull align 1 dereferenceable(17) %11) #17
  %12 = load ptr, ptr %7, align 8, !tbaa !214
  %13 = load i32, ptr %8, align 4, !tbaa !11
  %14 = load ptr, ptr %9, align 8, !tbaa !237
  %15 = load ptr, ptr %10, align 8, !tbaa !239
  call void @_ZN4Luau7CodeGenL15compileInternalERKSt8optionalISt5arrayIhLm16EEEP9lua_StateiRKNS0_18CompilationOptionsEPNS0_16CompilationStatsE(ptr dead_on_unwind writable sret(%"struct.Luau::CodeGen::CompilationResult") align 8 %0, ptr noundef nonnull align 1 dereferenceable(17) %11, ptr noundef %12, i32 noundef %13, ptr noundef nonnull align 8 dereferenceable(96) %14, ptr noundef %15)
  call void @llvm.lifetime.end.p0(i64 17, ptr %11) #17
  ret void
}