; Function Attrs: mustprogress uwtable
define dso_local void @_ZN4Luau7CodeGen7compileEP9lua_StateiRKNS0_18CompilationOptionsEPNS0_16CompilationStatsE(ptr dead_on_unwind noalias writable sret(%"struct.Luau::CodeGen::CompilationResult") align 8 %0, ptr noundef %1, i32 noundef %2, ptr noundef nonnull align 8 dereferenceable(96) %3, ptr noundef %4) local_unnamed_addr #1 {
  %6 = alloca %"class.std::optional.38", align 1
  call void @llvm.lifetime.start.p0(i64 17, ptr nonnull %6) #24
  %7 = getelementptr inbounds nuw i8, ptr %6, i64 16
  store i8 0, ptr %7, align 1, !tbaa !95
  call fastcc void @_ZN4Luau7CodeGenL15compileInternalERKSt8optionalISt5arrayIhLm16EEEP9lua_StateiRKNS0_18CompilationOptionsEPNS0_16CompilationStatsE(ptr dead_on_unwind noalias writable align 8 %0, ptr noundef nonnull align 1 dereferenceable(17) %6, ptr noundef %1, i32 noundef %2, ptr noundef nonnull align 8 dereferenceable(96) %3, ptr noundef %4)
  call void @llvm.lifetime.end.p0(i64 17, ptr nonnull %6) #24
  ret void
}